; Function Attrs: mustprogress nofree norecurse nosync nounwind willreturn memory(read, inaccessiblemem: none) uwtable
define internal range(i32 -1, 2) i32 @Vec_WecSortCompare4(ptr noundef readonly captures(none) %0, ptr noundef readonly captures(none) %1) #21 {
  %3 = getelementptr i8, ptr %0, i64 8
  %.val6 = load ptr, ptr %3, align 8, !tbaa !36
  %4 = load i32, ptr %.val6, align 4, !tbaa !37
  %5 = getelementptr i8, ptr %1, i64 8
  %.val5 = load ptr, ptr %5, align 8, !tbaa !36
  %6 = load i32, ptr %.val5, align 4, !tbaa !37
  %.0 = tail call i32 @llvm.scmp.i32.i32(i32 %6, i32 %4)
  ret i32 %.0
}